target datalayout = "e-m:e-p270:32:32-p271:32:32-p272:64:64-i64:64-i128:128-f80:128-n8:16:32:64-S128"
target triple = "x86_64-pc-linux-gnu"

%"class.icu_77::UnicodeString" = type { %"class.icu_77::Replaceable", %"union.icu_77::UnicodeString::StackBufferOrFields" }
%"class.icu_77::Replaceable" = type { %"class.icu_77::UObject" }
%"class.icu_77::UObject" = type { ptr }
%"union.icu_77::UnicodeString::StackBufferOrFields" = type { %struct.anon.0, [32 x i8] }
%struct.anon.0 = type { i16, i32, i32, ptr }
%"class.icu_77::ConstChar16Ptr" = type { ptr }
%"class.icu_77::TimeZoneFormat" = type { %"class.icu_77::Format", %"class.icu_77::Locale", [4 x i8], ptr, ptr, %"class.icu_77::UnicodeString", [6 x %"class.icu_77::UnicodeString"], [10 x i32], %"class.icu_77::UnicodeString", i32, %"class.icu_77::UnicodeString", %"class.icu_77::UnicodeString", [6 x ptr], i8, ptr }
%"class.icu_77::Format" = type { %"class.icu_77::UObject", ptr, ptr }
%"class.icu_77::Locale" = type <{ %"class.icu_77::UObject", [12 x i8], [6 x i8], [4 x i8], [2 x i8], i32, [4 x i8], ptr, [157 x i8], [3 x i8], ptr, i8, [7 x i8] }>

; Function Attrs: inlinehint mustprogress nounwind uwtable
define linkonce_odr noundef signext i8 @_ZNK6icu_7713UnicodeString7isEmptyEv(ptr noundef nonnull align 8 dereferenceable(64) %0) #2 comdat align 2 {
  %2 = alloca ptr, align 8
  store ptr %0, ptr %2, align 8, !tbaa !33
  %3 = load ptr, ptr %2, align 8
  %4 = getelementptr inbounds nuw %"class.icu_77::UnicodeString", ptr %3, i32 0, i32 1
  %5 = getelementptr inbounds nuw %struct.anon.0, ptr %4, i32 0, i32 0
  %6 = load i16, ptr %5, align 8, !tbaa !37
  %7 = sext i16 %6 to i32
  %8 = ashr i32 %7, 5
  %9 = icmp eq i32 %8, 0
  %10 = zext i1 %9 to i8
  ret i8 %10
}

; Function Attrs: inlinehint mustprogress nounwind uwtable
define linkonce_odr void @_ZN6icu_7714ConstChar16PtrD2Ev(ptr noundef nonnull align 8 dereferenceable(8) %0) unnamed_addr #2 comdat align 2 {
  %2 = alloca ptr, align 8
  store ptr %0, ptr %2, align 8, !tbaa !68
  %3 = load ptr, ptr %2, align 8
  %4 = getelementptr inbounds nuw %"class.icu_77::ConstChar16Ptr", ptr %3, i32 0, i32 0
  %5 = load ptr, ptr %4, align 8, !tbaa !70
  call void asm sideeffect "", "rm,~{memory},~{dirflag},~{fpsr},~{flags}"(ptr %5) #15, !srcloc !72
  ret void
}

; Function Attrs: inlinehint mustprogress nounwind uwtable
define linkonce_odr void @_ZN6icu_7714ConstChar16PtrC2EPKDs(ptr noundef nonnull align 8 dereferenceable(8) %0, ptr noundef %1) unnamed_addr #2 comdat align 2 {
  %3 = alloca ptr, align 8
  %4 = alloca ptr, align 8
  store ptr %0, ptr %3, align 8, !tbaa !68
  store ptr %1, ptr %4, align 8, !tbaa !61
  %5 = load ptr, ptr %3, align 8
  %6 = getelementptr inbounds nuw %"class.icu_77::ConstChar16Ptr", ptr %5, i32 0, i32 0
  %7 = load ptr, ptr %4, align 8, !tbaa !61
  store ptr %7, ptr %6, align 8, !tbaa !70
  ret void
}

; Function Attrs: inlinehint mustprogress nounwind uwtable
define internal noundef signext i8 @_ZL9U_FAILURE10UErrorCode(i32 noundef %0) #2 {
  %2 = alloca i32, align 4
  store i32 %0, ptr %2, align 4, !tbaa !15
  %3 = load i32, ptr %2, align 4, !tbaa !15
  %4 = icmp sgt i32 %3, 0
  %5 = zext i1 %4 to i8
  ret i8 %5
}

; Function Attrs: mustprogress uwtable
define noundef nonnull align 8 dereferenceable(64) ptr @_ZNK6icu_7714TimeZoneFormat14formatSpecificERKNS_8TimeZoneE17UTimeZoneNameTypeS4_dRNS_13UnicodeStringEP23UTimeZoneFormatTimeType(ptr noundef nonnull align 8 dereferenceable(1024) %0, ptr noundef nonnull align 8 dereferenceable(72) %1, i32 noundef %2, i32 noundef %3, double noundef %4, ptr noundef nonnull align 8 dereferenceable(64) %5, ptr noundef %6) #1 align 2 personality ptr @__gxx_personality_v0 {
  %8 = alloca ptr, align 8
  %9 = alloca ptr, align 8
  %10 = alloca ptr, align 8
  %11 = alloca i32, align 4
  %12 = alloca i32, align 4
  %13 = alloca double, align 8
  %14 = alloca ptr, align 8
  %15 = alloca ptr, align 8
  %16 = alloca i32, align 4
  %17 = alloca i8, align 1
  %18 = alloca ptr, align 8
  %19 = alloca i32, align 4
  %20 = alloca %"class.icu_77::UnicodeString", align 8
  %21 = alloca %"class.icu_77::ConstChar16Ptr", align 8
  %22 = alloca ptr, align 8
  %23 = alloca i32, align 4
  %24 = alloca %"class.icu_77::UnicodeString", align 8
  %25 = alloca %"class.icu_77::ConstChar16Ptr", align 8
  store ptr %0, ptr %9, align 8, !tbaa !39
  store ptr %1, ptr %10, align 8, !tbaa !98
  store i32 %2, ptr %11, align 4, !tbaa !105
  store i32 %3, ptr %12, align 4, !tbaa !105
  store double %4, ptr %13, align 8, !tbaa !100
  store ptr %5, ptr %14, align 8, !tbaa !33
  store ptr %6, ptr %15, align 8, !tbaa !22
  %26 = load ptr, ptr %9, align 8
  %27 = getelementptr inbounds nuw %"class.icu_77::TimeZoneFormat", ptr %26, i32 0, i32 3
  %28 = load ptr, ptr %27, align 8, !tbaa !43
  %29 = icmp eq ptr %28, null
  br i1 %29, label %30, label %33

30:                                               ; preds = %7
  %31 = load ptr, ptr %14, align 8, !tbaa !33
  call void @_ZN6icu_7713UnicodeString10setToBogusEv(ptr noundef nonnull align 8 dereferenceable(64) %31)
  %32 = load ptr, ptr %14, align 8, !tbaa !33
  store ptr %32, ptr %8, align 8
  br label %114

33:                                               ; preds = %7
  call void @llvm.lifetime.start.p0(i64 4, ptr %16) #15
  store i32 0, ptr %16, align 4, !tbaa !15
  call void @llvm.lifetime.start.p0(i64 1, ptr %17) #15
  %34 = load ptr, ptr %10, align 8, !tbaa !98
  %35 = load double, ptr %13, align 8, !tbaa !100
  %36 = load ptr, ptr %34, align 8, !tbaa !25
  %37 = getelementptr inbounds ptr, ptr %36, i64 10
  %38 = load ptr, ptr %37, align 8
  %39 = call noundef signext i8 %38(ptr noundef nonnull align 8 dereferenceable(72) %34, double noundef %35, ptr noundef nonnull align 4 dereferenceable(4) %16)
  store i8 %39, ptr %17, align 1, !tbaa !37
  call void @llvm.lifetime.start.p0(i64 8, ptr %18) #15
  %40 = load ptr, ptr %10, align 8, !tbaa !98
  %41 = call noundef ptr @_ZN6icu_778ZoneMeta18getCanonicalCLDRIDERKNS_8TimeZoneE(ptr noundef nonnull align 8 dereferenceable(72) %40)
  store ptr %41, ptr %18, align 8, !tbaa !61
  %42 = load i32, ptr %16, align 4, !tbaa !15
  %43 = call noundef signext i8 @_ZL9U_FAILURE10UErrorCode(i32 noundef %42)
  %44 = icmp ne i8 %43, 0
  br i1 %44, label %48, label %45

45:                                               ; preds = %33
  %46 = load ptr, ptr %18, align 8, !tbaa !61
  %47 = icmp eq ptr %46, null
  br i1 %47, label %48, label %51

48:                                               ; preds = %45, %33
  %49 = load ptr, ptr %14, align 8, !tbaa !33
  call void @_ZN6icu_7713UnicodeString10setToBogusEv(ptr noundef nonnull align 8 dereferenceable(64) %49)
  %50 = load ptr, ptr %14, align 8, !tbaa !33
  store ptr %50, ptr %8, align 8
  store i32 1, ptr %19, align 4
  br label %112

51:                                               ; preds = %45
  %52 = load i8, ptr %17, align 1, !tbaa !37
  %53 = icmp ne i8 %52, 0
  br i1 %53, label %54, label %76

54:                                               ; preds = %51
  %55 = getelementptr inbounds nuw %"class.icu_77::TimeZoneFormat", ptr %26, i32 0, i32 3
  %56 = load ptr, ptr %55, align 8, !tbaa !43
  call void @llvm.lifetime.start.p0(i64 64, ptr %20) #15
  %57 = load ptr, ptr %18, align 8, !tbaa !61
  call void @_ZN6icu_7714ConstChar16PtrC2EPKDs(ptr noundef nonnull align 8 dereferenceable(8) %21, ptr noundef %57)
  invoke void @_ZN6icu_7713UnicodeStringC1EaNS_14ConstChar16PtrEi(ptr noundef nonnull align 8 dereferenceable(64) %20, i8 noundef signext 1, ptr noundef %21, i32 noundef -1)
          to label %58 unwind label %67

58:                                               ; preds = %54
  %59 = load i32, ptr %12, align 4, !tbaa !105
  %60 = load double, ptr %13, align 8, !tbaa !100
  %61 = load ptr, ptr %14, align 8, !tbaa !33
  %62 = load ptr, ptr %56, align 8, !tbaa !25
  %63 = getelementptr inbounds ptr, ptr %62, i64 12
  %64 = load ptr, ptr %63, align 8
  %65 = invoke noundef nonnull align 8 dereferenceable(64) ptr %64(ptr noundef nonnull align 8 dereferenceable(8) %56, ptr noundef nonnull align 8 dereferenceable(64) %20, i32 noundef %59, double noundef %60, ptr noundef nonnull align 8 dereferenceable(64) %61)
          to label %66 unwind label %71

66:                                               ; preds = %58
  call void @_ZN6icu_7713UnicodeStringD1Ev(ptr noundef nonnull align 8 dereferenceable(64) %20) #15
  call void @_ZN6icu_7714ConstChar16PtrD2Ev(ptr noundef nonnull align 8 dereferenceable(8) %21) #15
  call void @llvm.lifetime.end.p0(i64 64, ptr %20) #15
  br label %98

67:                                               ; preds = %54
  %68 = landingpad { ptr, i32 }
          cleanup
  %69 = extractvalue { ptr, i32 } %68, 0
  store ptr %69, ptr %22, align 8
  %70 = extractvalue { ptr, i32 } %68, 1
  store i32 %70, ptr %23, align 4
  br label %75

71:                                               ; preds = %58
  %72 = landingpad { ptr, i32 }
          cleanup
  %73 = extractvalue { ptr, i32 } %72, 0
  store ptr %73, ptr %22, align 8
  %74 = extractvalue { ptr, i32 } %72, 1
  store i32 %74, ptr %23, align 4
  call void @_ZN6icu_7713UnicodeStringD1Ev(ptr noundef nonnull align 8 dereferenceable(64) %20) #15
  br label %75

75:                                               ; preds = %71, %67
  call void @_ZN6icu_7714ConstChar16PtrD2Ev(ptr noundef nonnull align 8 dereferenceable(8) %21) #15
  call void @llvm.lifetime.end.p0(i64 64, ptr %20) #15
  br label %113

76:                                               ; preds = %51
  %77 = getelementptr inbounds nuw %"class.icu_77::TimeZoneFormat", ptr %26, i32 0, i32 3
  %78 = load ptr, ptr %77, align 8, !tbaa !43
  call void @llvm.lifetime.start.p0(i64 64, ptr %24) #15
  %79 = load ptr, ptr %18, align 8, !tbaa !61
  call void @_ZN6icu_7714ConstChar16PtrC2EPKDs(ptr noundef nonnull align 8 dereferenceable(8) %25, ptr noundef %79)
  invoke void @_ZN6icu_7713UnicodeStringC1EaNS_14ConstChar16PtrEi(ptr noundef nonnull align 8 dereferenceable(64) %24, i8 noundef signext 1, ptr noundef %25, i32 noundef -1)
          to label %80 unwind label %89

80:                                               ; preds = %76
  %81 = load i32, ptr %11, align 4, !tbaa !105
  %82 = load double, ptr %13, align 8, !tbaa !100
  %83 = load ptr, ptr %14, align 8, !tbaa !33
  %84 = load ptr, ptr %78, align 8, !tbaa !25
  %85 = getelementptr inbounds ptr, ptr %84, i64 12
  %86 = load ptr, ptr %85, align 8
  %87 = invoke noundef nonnull align 8 dereferenceable(64) ptr %86(ptr noundef nonnull align 8 dereferenceable(8) %78, ptr noundef nonnull align 8 dereferenceable(64) %24, i32 noundef %81, double noundef %82, ptr noundef nonnull align 8 dereferenceable(64) %83)
          to label %88 unwind label %93

88:                                               ; preds = %80
  call void @_ZN6icu_7713UnicodeStringD1Ev(ptr noundef nonnull align 8 dereferenceable(64) %24) #15
  call void @_ZN6icu_7714ConstChar16PtrD2Ev(ptr noundef nonnull align 8 dereferenceable(8) %25) #15
  call void @llvm.lifetime.end.p0(i64 64, ptr %24) #15
  br label %98

89:                                               ; preds = %76
  %90 = landingpad { ptr, i32 }
          cleanup
  %91 = extractvalue { ptr, i32 } %90, 0
  store ptr %91, ptr %22, align 8
  %92 = extractvalue { ptr, i32 } %90, 1
  store i32 %92, ptr %23, align 4
  br label %97

93:                                               ; preds = %80
  %94 = landingpad { ptr, i32 }
          cleanup
  %95 = extractvalue { ptr, i32 } %94, 0
  store ptr %95, ptr %22, align 8
  %96 = extractvalue { ptr, i32 } %94, 1
  store i32 %96, ptr %23, align 4
  call void @_ZN6icu_7713UnicodeStringD1Ev(ptr noundef nonnull align 8 dereferenceable(64) %24) #15
  br label %97

97:                                               ; preds = %93, %89
  call void @_ZN6icu_7714ConstChar16PtrD2Ev(ptr noundef nonnull align 8 dereferenceable(8) %25) #15
  call void @llvm.lifetime.end.p0(i64 64, ptr %24) #15
  br label %113

98:                                               ; preds = %88, %66
  %99 = load ptr, ptr %15, align 8, !tbaa !22
  %100 = icmp ne ptr %99, null
  br i1 %100, label %101, label %110

101:                                              ; preds = %98
  %102 = load ptr, ptr %14, align 8, !tbaa !33
  %103 = call noundef signext i8 @_ZNK6icu_7713UnicodeString7isEmptyEv(ptr noundef nonnull align 8 dereferenceable(64) %102)
  %104 = icmp ne i8 %103, 0
  br i1 %104, label %110, label %105

105:                                              ; preds = %101
  %106 = load i8, ptr %17, align 1, !tbaa !37
  %107 = icmp ne i8 %106, 0
  %108 = select i1 %107, i32 2, i32 1
  %109 = load ptr, ptr %15, align 8, !tbaa !22
  store i32 %108, ptr %109, align 4, !tbaa !102
  br label %110

110:                                              ; preds = %105, %101, %98
  %111 = load ptr, ptr %14, align 8, !tbaa !33
  store ptr %111, ptr %8, align 8
  store i32 1, ptr %19, align 4
  br label %112

112:                                              ; preds = %110, %48
  call void @llvm.lifetime.end.p0(i64 8, ptr %18) #15
  call void @llvm.lifetime.end.p0(i64 1, ptr %17) #15
  call void @llvm.lifetime.end.p0(i64 4, ptr %16) #15
  br label %114

113:                                              ; preds = %97, %75
  call void @llvm.lifetime.end.p0(i64 8, ptr %18) #15
  call void @llvm.lifetime.end.p0(i64 1, ptr %17) #15
  call void @llvm.lifetime.end.p0(i64 4, ptr %16) #15
  br label %116

114:                                              ; preds = %112, %30
  %115 = load ptr, ptr %8, align 8
  ret ptr %115

116:                                              ; preds = %113
  %117 = load ptr, ptr %22, align 8
  %118 = load i32, ptr %23, align 4
  %119 = insertvalue { ptr, i32 } poison, ptr %117, 0
  %120 = insertvalue { ptr, i32 } %119, i32 %118, 1
  resume { ptr, i32 } %120
}