; Function Attrs: mustprogress uwtable
define noundef nonnull align 8 dereferenceable(64) ptr @_ZNK6icu_7714TimeZoneFormat14formatSpecificERKNS_8TimeZoneE17UTimeZoneNameTypeS4_dRNS_13UnicodeStringEP23UTimeZoneFormatTimeType(ptr noundef nonnull readonly align 8 captures(none) dereferenceable(1024) %0, ptr noundef nonnull align 8 dereferenceable(72) %1, i32 noundef %2, i32 noundef %3, double noundef %4, ptr noundef nonnull returned align 8 dereferenceable(64) %5, ptr noundef writeonly %6) local_unnamed_addr #1 align 2 personality ptr @__gxx_personality_v0 {
  %8 = alloca i32, align 4
  %9 = alloca %"class.icu_77::UnicodeString", align 8
  %10 = alloca %"class.icu_77::ConstChar16Ptr", align 8
  %11 = alloca %"class.icu_77::UnicodeString", align 8
  %12 = alloca %"class.icu_77::ConstChar16Ptr", align 8
  %13 = getelementptr inbounds nuw i8, ptr %0, i64 256
  %14 = load ptr, ptr %13, align 8, !tbaa !41
  %15 = icmp eq ptr %14, null
  br i1 %15, label %16, label %17

16:                                               ; preds = %7
  tail call void @_ZN6icu_7713UnicodeString10setToBogusEv(ptr noundef nonnull align 8 dereferenceable(64) %5)
  br label %65

17:                                               ; preds = %7
  call void @llvm.lifetime.start.p0(i64 4, ptr nonnull %8) #22
  store i32 0, ptr %8, align 4, !tbaa !13
  %18 = load ptr, ptr %1, align 8, !tbaa !15
  %19 = getelementptr inbounds nuw i8, ptr %18, i64 80
  %20 = load ptr, ptr %19, align 8
  %21 = call noundef signext i8 %20(ptr noundef nonnull align 8 dereferenceable(72) %1, double noundef %4, ptr noundef nonnull align 4 dereferenceable(4) %8)
  %22 = call noundef ptr @_ZN6icu_778ZoneMeta18getCanonicalCLDRIDERKNS_8TimeZoneE(ptr noundef nonnull align 8 dereferenceable(72) %1)
  %23 = load i32, ptr %8, align 4, !tbaa !13
  %24 = icmp sgt i32 %23, 0
  %25 = icmp eq ptr %22, null
  %or.cond = or i1 %25, %24
  br i1 %or.cond, label %26, label %27

26:                                               ; preds = %17
  call void @_ZN6icu_7713UnicodeString10setToBogusEv(ptr noundef nonnull align 8 dereferenceable(64) %5)
  br label %63

27:                                               ; preds = %17
  %.not = icmp eq i8 %21, 0
  %28 = load ptr, ptr %13, align 8, !tbaa !41
  br i1 %.not, label %43, label %29

29:                                               ; preds = %27
  call void @llvm.lifetime.start.p0(i64 64, ptr nonnull %9) #22
  store ptr %22, ptr %10, align 8, !tbaa !42
  invoke void @_ZN6icu_7713UnicodeStringC1EaNS_14ConstChar16PtrEi(ptr noundef nonnull align 8 dereferenceable(64) %9, i8 noundef signext 1, ptr noundef nonnull %10, i32 noundef -1)
          to label %30 unwind label %37

30:                                               ; preds = %29
  %31 = load ptr, ptr %28, align 8, !tbaa !15
  %32 = getelementptr inbounds nuw i8, ptr %31, i64 96
  %33 = load ptr, ptr %32, align 8
  %34 = invoke noundef nonnull align 8 dereferenceable(64) ptr %33(ptr noundef nonnull align 8 dereferenceable(8) %28, ptr noundef nonnull align 8 dereferenceable(64) %9, i32 noundef %3, double noundef %4, ptr noundef nonnull align 8 dereferenceable(64) %5)
          to label %35 unwind label %39

35:                                               ; preds = %30
  call void @_ZN6icu_7713UnicodeStringD1Ev(ptr noundef nonnull align 8 dereferenceable(64) %9) #22
  %36 = load ptr, ptr %10, align 8, !tbaa !42
  call void asm sideeffect "", "rm,~{memory},~{dirflag},~{fpsr},~{flags}"(ptr %36) #22, !srcloc !44
  call void @llvm.lifetime.end.p0(i64 64, ptr nonnull %9) #22
  br label %57

37:                                               ; preds = %29
  %38 = landingpad { ptr, i32 }
          cleanup
  br label %41

39:                                               ; preds = %30
  %40 = landingpad { ptr, i32 }
          cleanup
  call void @_ZN6icu_7713UnicodeStringD1Ev(ptr noundef nonnull align 8 dereferenceable(64) %9) #22
  br label %41

41:                                               ; preds = %39, %37
  %.pn34 = phi { ptr, i32 } [ %40, %39 ], [ %38, %37 ]
  %42 = load ptr, ptr %10, align 8, !tbaa !42
  call void asm sideeffect "", "rm,~{memory},~{dirflag},~{fpsr},~{flags}"(ptr %42) #22, !srcloc !44
  call void @llvm.lifetime.end.p0(i64 64, ptr nonnull %9) #22
  br label %64

43:                                               ; preds = %27
  call void @llvm.lifetime.start.p0(i64 64, ptr nonnull %11) #22
  store ptr %22, ptr %12, align 8, !tbaa !42
  invoke void @_ZN6icu_7713UnicodeStringC1EaNS_14ConstChar16PtrEi(ptr noundef nonnull align 8 dereferenceable(64) %11, i8 noundef signext 1, ptr noundef nonnull %12, i32 noundef -1)
          to label %44 unwind label %51

44:                                               ; preds = %43
  %45 = load ptr, ptr %28, align 8, !tbaa !15
  %46 = getelementptr inbounds nuw i8, ptr %45, i64 96
  %47 = load ptr, ptr %46, align 8
  %48 = invoke noundef nonnull align 8 dereferenceable(64) ptr %47(ptr noundef nonnull align 8 dereferenceable(8) %28, ptr noundef nonnull align 8 dereferenceable(64) %11, i32 noundef %2, double noundef %4, ptr noundef nonnull align 8 dereferenceable(64) %5)
          to label %49 unwind label %53

49:                                               ; preds = %44
  call void @_ZN6icu_7713UnicodeStringD1Ev(ptr noundef nonnull align 8 dereferenceable(64) %11) #22
  %50 = load ptr, ptr %12, align 8, !tbaa !42
  call void asm sideeffect "", "rm,~{memory},~{dirflag},~{fpsr},~{flags}"(ptr %50) #22, !srcloc !44
  call void @llvm.lifetime.end.p0(i64 64, ptr nonnull %11) #22
  br label %57

51:                                               ; preds = %43
  %52 = landingpad { ptr, i32 }
          cleanup
  br label %55

53:                                               ; preds = %44
  %54 = landingpad { ptr, i32 }
          cleanup
  call void @_ZN6icu_7713UnicodeStringD1Ev(ptr noundef nonnull align 8 dereferenceable(64) %11) #22
  br label %55

55:                                               ; preds = %53, %51
  %.pn = phi { ptr, i32 } [ %54, %53 ], [ %52, %51 ]
  %56 = load ptr, ptr %12, align 8, !tbaa !42
  call void asm sideeffect "", "rm,~{memory},~{dirflag},~{fpsr},~{flags}"(ptr %56) #22, !srcloc !44
  call void @llvm.lifetime.end.p0(i64 64, ptr nonnull %11) #22
  br label %64

57:                                               ; preds = %49, %35
  %.not37 = icmp ne ptr %6, null
  %58 = getelementptr inbounds nuw i8, ptr %5, i64 8
  %59 = load i16, ptr %58, align 8
  %60 = icmp ugt i16 %59, 31
  %or.cond41 = select i1 %.not37, i1 %60, i1 false
  br i1 %or.cond41, label %61, label %63

61:                                               ; preds = %57
  %62 = select i1 %.not, i32 1, i32 2
  store i32 %62, ptr %6, align 4, !tbaa !61
  br label %63

63:                                               ; preds = %57, %61, %26
  call void @llvm.lifetime.end.p0(i64 4, ptr nonnull %8) #22
  br label %65

64:                                               ; preds = %55, %41
  %.pn34.pn = phi { ptr, i32 } [ %.pn34, %41 ], [ %.pn, %55 ]
  call void @llvm.lifetime.end.p0(i64 4, ptr nonnull %8) #22
  resume { ptr, i32 } %.pn34.pn

65:                                               ; preds = %63, %16
  ret ptr %5
}